target datalayout = "e-m:e-p270:32:32-p271:32:32-p272:64:64-i64:64-i128:128-f80:128-n8:16:32:64-S128"
target triple = "x86_64-pc-linux-gnu"

%struct.IBBDPrecDataRec = type { i64, i64, i64, i64, double, ptr, ptr, i64, ptr, ptr, ptr, ptr, ptr, ptr, ptr, ptr, i64, i64, i64, ptr }

; Function Attrs: nounwind uwtable
define internal i32 @IDABBDPrecSolve(double noundef %0, ptr noundef %1, ptr noundef %2, ptr noundef %3, ptr noundef %4, ptr noundef %5, double noundef %6, double noundef %7, ptr noundef %8) #0 {
  %10 = alloca double, align 8
  %11 = alloca ptr, align 8
  %12 = alloca ptr, align 8
  %13 = alloca ptr, align 8
  %14 = alloca ptr, align 8
  %15 = alloca ptr, align 8
  %16 = alloca double, align 8
  %17 = alloca double, align 8
  %18 = alloca ptr, align 8
  %19 = alloca ptr, align 8
  %20 = alloca i32, align 4
  store double %0, ptr %10, align 8, !tbaa !9
  store ptr %1, ptr %11, align 8, !tbaa !73
  store ptr %2, ptr %12, align 8, !tbaa !73
  store ptr %3, ptr %13, align 8, !tbaa !73
  store ptr %4, ptr %14, align 8, !tbaa !73
  store ptr %5, ptr %15, align 8, !tbaa !73
  store double %6, ptr %16, align 8, !tbaa !9
  store double %7, ptr %17, align 8, !tbaa !9
  store ptr %8, ptr %18, align 8, !tbaa !3
  call void @llvm.lifetime.start.p0(i64 8, ptr %19) #6
  call void @llvm.lifetime.start.p0(i64 4, ptr %20) #6
  %21 = load ptr, ptr %18, align 8, !tbaa !3
  store ptr %21, ptr %19, align 8, !tbaa !31
  %22 = load ptr, ptr %14, align 8, !tbaa !73
  %23 = call ptr @N_VGetArrayPointer(ptr noundef %22)
  %24 = load ptr, ptr %19, align 8, !tbaa !31
  %25 = getelementptr inbounds nuw %struct.IBBDPrecDataRec, ptr %24, i32 0, i32 11
  %26 = load ptr, ptr %25, align 8, !tbaa !46
  call void @N_VSetArrayPointer(ptr noundef %23, ptr noundef %26)
  %27 = load ptr, ptr %15, align 8, !tbaa !73
  %28 = call ptr @N_VGetArrayPointer(ptr noundef %27)
  %29 = load ptr, ptr %19, align 8, !tbaa !31
  %30 = getelementptr inbounds nuw %struct.IBBDPrecDataRec, ptr %29, i32 0, i32 10
  %31 = load ptr, ptr %30, align 8, !tbaa !45
  call void @N_VSetArrayPointer(ptr noundef %28, ptr noundef %31)
  %32 = load ptr, ptr %19, align 8, !tbaa !31
  %33 = getelementptr inbounds nuw %struct.IBBDPrecDataRec, ptr %32, i32 0, i32 9
  %34 = load ptr, ptr %33, align 8, !tbaa !51
  %35 = load ptr, ptr %19, align 8, !tbaa !31
  %36 = getelementptr inbounds nuw %struct.IBBDPrecDataRec, ptr %35, i32 0, i32 8
  %37 = load ptr, ptr %36, align 8, !tbaa !43
  %38 = load ptr, ptr %19, align 8, !tbaa !31
  %39 = getelementptr inbounds nuw %struct.IBBDPrecDataRec, ptr %38, i32 0, i32 10
  %40 = load ptr, ptr %39, align 8, !tbaa !45
  %41 = load ptr, ptr %19, align 8, !tbaa !31
  %42 = getelementptr inbounds nuw %struct.IBBDPrecDataRec, ptr %41, i32 0, i32 11
  %43 = load ptr, ptr %42, align 8, !tbaa !46
  %44 = call i32 @SUNLinSolSolve(ptr noundef %34, ptr noundef %37, ptr noundef %40, ptr noundef %43, double noundef 0.000000e+00)
  store i32 %44, ptr %20, align 4, !tbaa !52
  %45 = load ptr, ptr %19, align 8, !tbaa !31
  %46 = getelementptr inbounds nuw %struct.IBBDPrecDataRec, ptr %45, i32 0, i32 11
  %47 = load ptr, ptr %46, align 8, !tbaa !46
  call void @N_VSetArrayPointer(ptr noundef null, ptr noundef %47)
  %48 = load ptr, ptr %19, align 8, !tbaa !31
  %49 = getelementptr inbounds nuw %struct.IBBDPrecDataRec, ptr %48, i32 0, i32 10
  %50 = load ptr, ptr %49, align 8, !tbaa !45
  call void @N_VSetArrayPointer(ptr noundef null, ptr noundef %50)
  %51 = load i32, ptr %20, align 4, !tbaa !52
  call void @llvm.lifetime.end.p0(i64 4, ptr %20) #6
  call void @llvm.lifetime.end.p0(i64 8, ptr %19) #6
  ret i32 %51
}