; Function Attrs: nounwind uwtable
define internal i32 @IDABBDPrecSolve(double %0, ptr readnone captures(none) %1, ptr readnone captures(none) %2, ptr readnone captures(none) %3, ptr noundef %4, ptr noundef %5, double %6, double %7, ptr noundef readonly captures(none) %8) #0 {
  %10 = tail call ptr @N_VGetArrayPointer(ptr noundef %4) #10
  %11 = getelementptr inbounds nuw i8, ptr %8, i64 88
  %12 = load ptr, ptr %11, align 8, !tbaa !37
  tail call void @N_VSetArrayPointer(ptr noundef %10, ptr noundef %12) #10
  %13 = tail call ptr @N_VGetArrayPointer(ptr noundef %5) #10
  %14 = getelementptr inbounds nuw i8, ptr %8, i64 80
  %15 = load ptr, ptr %14, align 8, !tbaa !36
  tail call void @N_VSetArrayPointer(ptr noundef %13, ptr noundef %15) #10
  %16 = getelementptr inbounds nuw i8, ptr %8, i64 72
  %17 = load ptr, ptr %16, align 8, !tbaa !42
  %18 = getelementptr inbounds nuw i8, ptr %8, i64 64
  %19 = load ptr, ptr %18, align 8, !tbaa !34
  %20 = load ptr, ptr %14, align 8, !tbaa !36
  %21 = load ptr, ptr %11, align 8, !tbaa !37
  %22 = tail call i32 @SUNLinSolSolve(ptr noundef %17, ptr noundef %19, ptr noundef %20, ptr noundef %21, double noundef 0.000000e+00) #10
  %23 = load ptr, ptr %11, align 8, !tbaa !37
  tail call void @N_VSetArrayPointer(ptr noundef null, ptr noundef %23) #10
  %24 = load ptr, ptr %14, align 8, !tbaa !36
  tail call void @N_VSetArrayPointer(ptr noundef null, ptr noundef %24) #10
  ret i32 %22
}